; Function Attrs: nounwind uwtable
define void @lv_indev_reset(ptr noundef %0, ptr noundef captures(address) %1) local_unnamed_addr #0 {
  %.not = icmp eq ptr %0, null
  br i1 %.not, label %4, label %3

3:                                                ; preds = %2
  tail call fastcc void @indev_reset_core(ptr noundef %0, ptr noundef %1)
  br label %7

4:                                                ; preds = %2
  %5 = tail call ptr @lv_ll_get_head(ptr noundef nonnull getelementptr inbounds nuw (i8, ptr @lv_global, i64 128)) #11
  %.not89 = icmp eq ptr %5, null
  br i1 %.not89, label %._crit_edge, label %lv_indev_get_next.exit

lv_indev_get_next.exit:                           ; preds = %4, %lv_indev_get_next.exit
  %.010 = phi ptr [ %6, %lv_indev_get_next.exit ], [ %5, %4 ]
  tail call fastcc void @indev_reset_core(ptr noundef %.010, ptr noundef %1)
  %6 = tail call ptr @lv_ll_get_next(ptr noundef nonnull getelementptr inbounds nuw (i8, ptr @lv_global, i64 128), ptr noundef nonnull %.010) #11
  %.not8 = icmp eq ptr %6, null
  br i1 %.not8, label %._crit_edge, label %lv_indev_get_next.exit, !llvm.loop !122

._crit_edge:                                      ; preds = %lv_indev_get_next.exit, %4
  store ptr null, ptr getelementptr inbounds nuw (i8, ptr @lv_global, i64 160), align 8, !tbaa !66
  br label %7

7:                                                ; preds = %._crit_edge, %3
  ret void
}